(dp0
I0
(I0
I0
I0
tp1
sI1
(I0
I0
I0
tp2
sI2
(I0
I0
I0
tp3
sI3
(I0
I0
I0
tp4
sI4
(I0
I0
I0
tp5
sI5
(I0
I0
I0
tp6
sI6
(I0
I0
I0
tp7
sI7
(I0
I0
I0
tp8
sI8
(I0
I0
I0
tp9
sI9
(I0
I0
I0
tp10
sI10
(I0
I0
I0
tp11
sI11
(I0
I0
I0
tp12
sI12
(I0
I0
I0
tp13
sI13
(I0
I0
I0
tp14
sI14
(I0
I0
I0
tp15
sI15
(I0
I0
I0
tp16
sI16
(I0
I0
I0
tp17
sI17
(I0
I0
I0
tp18
sI18
(I0
I0
I0
tp19
sI19
(I0
I0
I0
tp20
sI20
(I0
I0
I0
tp21
sI21
(I0
I0
I0
tp22
sI22
(I0
I0
I0
tp23
sI23
(I0
I0
I0
tp24
sI24
(I0
I0
I0
tp25
sI25
(I0
I0
I0
tp26
sI26
(I0
I0
I0
tp27
sI27
(I0
I0
I0
tp28
sI28
(I0
I0
I0
tp29
sI29
(I0
I0
I0
tp30
sI30
(I0
I0
I0
tp31
sI31
(I0
I0
I0
tp32
sI32
(I0
I0
I0
tp33
sI33
(I0
I0
I0
tp34
sI34
(I0
I0
I0
tp35
sI35
(I0
I0
I0
tp36
sI36
(I0
I0
I0
tp37
sI37
(I0
I0
I0
tp38
sI38
(I0
I0
I0
tp39
sI39
(I0
I0
I0
tp40
sI40
(I0
I0
I0
tp41
sI41
(I0
I0
I0
tp42
sI42
(I0
I0
I0
tp43
sI43
(I0
I0
I0
tp44
sI44
(I0
I0
I0
tp45
sI45
(I0
I0
I0
tp46
sI46
(I0
I0
I0
tp47
sI47
(I0
I0
I0
tp48
sI48
(I0
I0
I0
tp49
sI49
(I0
I0
I0
tp50
sI50
(I0
I0
I0
tp51
sI51
(I0
I0
I0
tp52
sI52
(I0
I0
I0
tp53
sI53
(I0
I0
I0
tp54
sI54
(I0
I0
I0
tp55
sI55
(I0
I0
I0
tp56
sI56
(I0
I0
I0
tp57
sI57
(I0
I0
I0
tp58
sI58
(I0
I0
I0
tp59
sI59
(I0
I0
I0
tp60
sI60
(I0
I0
I0
tp61
sI61
(I0
I0
I0
tp62
sI62
(I0
I0
I0
tp63
sI63
(I0
I0
I0
tp64
sI64
(I0
I0
I0
tp65
sI65
(I0
I0
I0
tp66
sI66
(I0
I0
I0
tp67
sI67
(I0
I0
I0
tp68
sI68
(I0
I0
I0
tp69
sI69
(I0
I0
I0
tp70
sI70
(I0
I0
I0
tp71
sI71
(I0
I0
I0
tp72
sI72
(I0
I0
I0
tp73
sI73
(I0
I0
I0
tp74
sI74
(I0
I0
I0
tp75
sI75
(I0
I0
I0
tp76
sI76
(I0
I0
I0
tp77
sI77
(I0
I0
I0
tp78
sI78
(I0
I0
I0
tp79
sI79
(I0
I0
I0
tp80
sI80
(I0
I0
I0
tp81
sI81
(I0
I0
I0
tp82
sI82
(I0
I0
I0
tp83
sI83
(I0
I0
I0
tp84
sI84
(I0
I0
I0
tp85
sI85
(I0
I0
I0
tp86
sI86
(I0
I0
I0
tp87
sI87
(I0
I0
I0
tp88
sI88
(I0
I0
I0
tp89
s.